target datalayout = "e-m:e-p270:32:32-p271:32:32-p272:64:64-i64:64-i128:128-f80:128-n8:16:32:64-S128"
target triple = "x86_64-pc-linux-gnu"

%struct.opts_t = type { i32, i32, i32, i32, i32, i32, i32, i32, i32, ptr, ptr, ptr }

@stderr = external global ptr, align 8
@.str.12 = private unnamed_addr constant [25 x i8] c"ill-formed integer \22%s\22 \00", align 1
@.str.13 = private unnamed_addr constant [26 x i8] c"integer \22%s\22 less than %d\00", align 1

; Function Attrs: nounwind uwtable
define internal i32 @readPos(ptr noundef %0, ptr noundef %1) #0 {
  %3 = alloca i32, align 4
  %4 = alloca ptr, align 8
  %5 = alloca ptr, align 8
  %6 = alloca i64, align 8
  %7 = alloca i32, align 4
  store ptr %0, ptr %4, align 8, !tbaa !30
  store ptr %1, ptr %5, align 8, !tbaa !8
  call void @llvm.lifetime.start.p0(i64 8, ptr %6) #8
  %8 = load ptr, ptr %4, align 8, !tbaa !30
  %9 = load ptr, ptr %5, align 8, !tbaa !8
  %10 = call i64 @strtoul(ptr noundef %8, ptr noundef %9, i32 noundef 10) #8
  store i64 %10, ptr %6, align 8, !tbaa !37
  %11 = load ptr, ptr %4, align 8, !tbaa !30
  %12 = load ptr, ptr %5, align 8, !tbaa !8
  %13 = load ptr, ptr %12, align 8, !tbaa !30
  %14 = icmp eq ptr %11, %13
  br i1 %14, label %18, label %15

15:                                               ; preds = %2
  %16 = load i64, ptr %6, align 8, !tbaa !37
  %17 = icmp ugt i64 %16, 4294967295
  br i1 %17, label %18, label %22

18:                                               ; preds = %15, %2
  %19 = load ptr, ptr @stderr, align 8, !tbaa !31
  %20 = load ptr, ptr %4, align 8, !tbaa !30
  %21 = call i32 (ptr, ptr, ...) @fprintf(ptr noundef %19, ptr noundef @.str.12, ptr noundef %20) #8
  store i32 0, ptr %3, align 4
  store i32 1, ptr %7, align 4
  br label %32

22:                                               ; preds = %15
  %23 = load i64, ptr %6, align 8, !tbaa !37
  %24 = icmp ult i64 %23, 1
  br i1 %24, label %25, label %29

25:                                               ; preds = %22
  %26 = load ptr, ptr @stderr, align 8, !tbaa !31
  %27 = load ptr, ptr %4, align 8, !tbaa !30
  %28 = call i32 (ptr, ptr, ...) @fprintf(ptr noundef %26, ptr noundef @.str.13, ptr noundef %27, i32 noundef 1) #8
  store i32 0, ptr %3, align 4
  store i32 1, ptr %7, align 4
  br label %32

29:                                               ; preds = %22
  %30 = load i64, ptr %6, align 8, !tbaa !37
  %31 = trunc i64 %30 to i32
  store i32 %31, ptr %3, align 4
  store i32 1, ptr %7, align 4
  br label %32

32:                                               ; preds = %29, %25, %18
  call void @llvm.lifetime.end.p0(i64 8, ptr %6) #8
  %33 = load i32, ptr %3, align 4
  ret i32 %33
}

; Function Attrs: nounwind uwtable
define internal i32 @setTwoOpt(ptr noundef %0, ptr noundef %1, i32 noundef %2) #0 {
  %4 = alloca i32, align 4
  %5 = alloca ptr, align 8
  %6 = alloca ptr, align 8
  %7 = alloca i32, align 4
  %8 = alloca ptr, align 8
  %9 = alloca i32, align 4
  %10 = alloca i32, align 4
  %11 = alloca ptr, align 8
  store ptr %0, ptr %5, align 8, !tbaa !30
  store ptr %1, ptr %6, align 8, !tbaa !19
  store i32 %2, ptr %7, align 4, !tbaa !4
  call void @llvm.lifetime.start.p0(i64 8, ptr %8) #8
  call void @llvm.lifetime.start.p0(i64 4, ptr %9) #8
  %12 = load ptr, ptr %5, align 8, !tbaa !30
  %13 = call i32 @readPos(ptr noundef %12, ptr noundef %8)
  store i32 %13, ptr %9, align 4, !tbaa !4
  %14 = load i32, ptr %9, align 4, !tbaa !4
  %15 = icmp eq i32 %14, 0
  br i1 %15, label %16, label %17

16:                                               ; preds = %3
  store i32 -1, ptr %4, align 4
  store i32 1, ptr %10, align 4
  br label %41

17:                                               ; preds = %3
  %18 = load i32, ptr %9, align 4, !tbaa !4
  %19 = load ptr, ptr %6, align 8, !tbaa !19
  %20 = getelementptr inbounds nuw %struct.opts_t, ptr %19, i32 0, i32 0
  store i32 %18, ptr %20, align 8, !tbaa !20
  %21 = load ptr, ptr %8, align 8, !tbaa !30
  %22 = load i8, ptr %21, align 1, !tbaa !34
  %23 = sext i8 %22 to i32
  %24 = icmp ne i32 %23, 44
  br i1 %24, label %25, label %29

25:                                               ; preds = %17
  %26 = load i32, ptr %7, align 4, !tbaa !4
  %27 = load ptr, ptr %6, align 8, !tbaa !19
  %28 = getelementptr inbounds nuw %struct.opts_t, ptr %27, i32 0, i32 1
  store i32 %26, ptr %28, align 4, !tbaa !21
  store i32 0, ptr %4, align 4
  store i32 1, ptr %10, align 4
  br label %41

29:                                               ; preds = %17
  %30 = load ptr, ptr %8, align 8, !tbaa !30
  %31 = getelementptr inbounds i8, ptr %30, i64 1
  store ptr %31, ptr %5, align 8, !tbaa !30
  %32 = load ptr, ptr %5, align 8, !tbaa !30
  store ptr null, ptr %11, align 8, !tbaa !30
  %33 = call i32 @readPos(ptr noundef %32, ptr noundef %11)
  store i32 %33, ptr %9, align 4, !tbaa !4
  %34 = load i32, ptr %9, align 4, !tbaa !4
  %35 = icmp ugt i32 %34, 1
  br i1 %35, label %36, label %40

36:                                               ; preds = %29
  %37 = load i32, ptr %9, align 4, !tbaa !4
  %38 = load ptr, ptr %6, align 8, !tbaa !19
  %39 = getelementptr inbounds nuw %struct.opts_t, ptr %38, i32 0, i32 1
  store i32 %37, ptr %39, align 4, !tbaa !21
  store i32 0, ptr %4, align 4
  store i32 1, ptr %10, align 4
  br label %41

40:                                               ; preds = %29
  store i32 -1, ptr %4, align 4
  store i32 1, ptr %10, align 4
  br label %41

41:                                               ; preds = %40, %36, %25, %16
  call void @llvm.lifetime.end.p0(i64 4, ptr %9) #8
  call void @llvm.lifetime.end.p0(i64 8, ptr %8) #8
  %42 = load i32, ptr %4, align 4
  ret i32 %42
}