; Function Attrs: nofree nounwind uwtable
define internal fastcc range(i32 -1, 1) i32 @setTwoOpt(ptr noundef %0) unnamed_addr #3 {
  %2 = alloca ptr, align 8
  %3 = alloca ptr, align 8
  call void @llvm.lifetime.start.p0(i64 8, ptr nonnull %2) #11
  %4 = call i64 @strtoul(ptr noundef %0, ptr noundef nonnull %2, i32 noundef 10) #11
  %5 = load ptr, ptr %2, align 8, !tbaa !14
  %6 = icmp eq ptr %0, %5
  %7 = icmp ugt i64 %4, 4294967295
  %or.cond.i = select i1 %6, i1 true, i1 %7
  br i1 %or.cond.i, label %8, label %11

8:                                                ; preds = %1
  %9 = load ptr, ptr @stderr, align 8, !tbaa !18
  %10 = tail call i32 (ptr, ptr, ...) @fprintf(ptr noundef %9, ptr noundef nonnull @.str.12, ptr noundef %0) #12
  br label %readPos.exit.thread

11:                                               ; preds = %1
  %12 = icmp eq i64 %4, 0
  br i1 %12, label %13, label %readPos.exit

13:                                               ; preds = %11
  %14 = load ptr, ptr @stderr, align 8, !tbaa !18
  %15 = tail call i32 (ptr, ptr, ...) @fprintf(ptr noundef %14, ptr noundef nonnull @.str.13, ptr noundef %0, i32 noundef 1) #12
  br label %readPos.exit.thread

readPos.exit:                                     ; preds = %11
  %16 = trunc nuw i64 %4 to i32
  store i32 %16, ptr @opts.0, align 8, !tbaa !20
  %17 = load i8, ptr %5, align 1, !tbaa !19
  %.not = icmp eq i8 %17, 44
  br i1 %.not, label %19, label %18

18:                                               ; preds = %readPos.exit
  store i32 2, ptr @opts.1, align 4, !tbaa !21
  br label %readPos.exit.thread

19:                                               ; preds = %readPos.exit
  %20 = getelementptr inbounds nuw i8, ptr %5, i64 1
  store ptr null, ptr %3, align 8, !tbaa !14
  %21 = call i64 @strtoul(ptr noundef nonnull %20, ptr noundef nonnull %3, i32 noundef 10) #11
  %22 = load ptr, ptr %3, align 8, !tbaa !14
  %23 = icmp eq ptr %20, %22
  %24 = icmp ugt i64 %21, 4294967295
  %or.cond.i12 = select i1 %23, i1 true, i1 %24
  br i1 %or.cond.i12, label %25, label %28

25:                                               ; preds = %19
  %26 = load ptr, ptr @stderr, align 8, !tbaa !18
  %27 = tail call i32 (ptr, ptr, ...) @fprintf(ptr noundef %26, ptr noundef nonnull @.str.12, ptr noundef nonnull %20) #12
  br label %readPos.exit.thread

28:                                               ; preds = %19
  %trunc = trunc nuw i64 %21 to i32
  switch i32 %trunc, label %32 [
    i32 0, label %29
    i32 1, label %readPos.exit.thread
  ]

29:                                               ; preds = %28
  %30 = load ptr, ptr @stderr, align 8, !tbaa !18
  %31 = tail call i32 (ptr, ptr, ...) @fprintf(ptr noundef %30, ptr noundef nonnull @.str.13, ptr noundef nonnull %20, i32 noundef 1) #12
  br label %readPos.exit.thread

32:                                               ; preds = %28
  store i32 %trunc, ptr @opts.1, align 4, !tbaa !21
  br label %readPos.exit.thread

readPos.exit.thread:                              ; preds = %28, %29, %25, %13, %8, %32, %18
  %.0 = phi i32 [ 0, %18 ], [ 0, %32 ], [ -1, %8 ], [ -1, %13 ], [ -1, %25 ], [ -1, %29 ], [ -1, %28 ]
  call void @llvm.lifetime.end.p0(i64 8, ptr nonnull %2) #11
  ret i32 %.0
}